target datalayout = "e-m:e-p270:32:32-p271:32:32-p272:64:64-i64:64-i128:128-f80:128-n8:16:32:64-S128"
target triple = "x86_64-pc-linux-gnu"

@.str = private unnamed_addr constant [24 x i8] c"unrecognized XML syntax\00", align 1
@.str.1 = private unnamed_addr constant [27 x i8] c"XML start/end tag mismatch\00", align 1
@.str.2 = private unnamed_addr constant [4 x i8] c" - \00", align 1
@.str.3 = private unnamed_addr constant [21 x i8] c"Invalid XML tag name\00", align 1
@.str.4 = private unnamed_addr constant [18 x i8] c"programming error\00", align 1
@_ZTVSt9exception = available_externally unnamed_addr constant { [5 x ptr] } { [5 x ptr] [ptr null, ptr @_ZTISt9exception, ptr @_ZNSt9exceptionD1Ev, ptr @_ZNSt9exceptionD0Ev, ptr @_ZNKSt9exception4whatEv] }, align 8

; Function Attrs: mustprogress nounwind uwtable
define linkonce_odr hidden void @_ZNSt9exceptionC2Ev(ptr noundef nonnull align 8 dereferenceable(8) %0) unnamed_addr #3 comdat align 2 {
  %2 = alloca ptr, align 8
  store ptr %0, ptr %2, align 8, !tbaa !3
  %3 = load ptr, ptr %2, align 8
  store ptr getelementptr inbounds inrange(-16, 24) ({ [5 x ptr] }, ptr @_ZTVSt9exception, i32 0, i32 0, i32 2), ptr %3, align 8, !tbaa !9
  ret void
}

; Function Attrs: mustprogress uwtable
define void @_ZN5boost7archive21xml_archive_exceptionC1ENS1_14exception_codeEPKcS4_(ptr noundef nonnull align 8 dereferenceable(8) %0, i32 noundef %1, ptr noundef %2, ptr noundef %3) unnamed_addr #0 align 2 personality ptr @__gxx_personality_v0 {
  %5 = alloca ptr, align 8
  %6 = alloca i32, align 4
  %7 = alloca ptr, align 8
  %8 = alloca ptr, align 8
  %9 = alloca ptr, align 8
  %10 = alloca i32, align 4
  %11 = alloca i32, align 4
  store ptr %0, ptr %5, align 8, !tbaa !3
  store i32 %1, ptr %6, align 4, !tbaa !7
  store ptr %2, ptr %7, align 8, !tbaa !3
  store ptr %3, ptr %8, align 8, !tbaa !3
  %12 = load ptr, ptr %5, align 8
  call void @_ZNSt9exceptionC2Ev(ptr noundef nonnull align 8 dereferenceable(8) %12) #7
  %13 = getelementptr inbounds i8, ptr %12, i64 8
  %14 = load ptr, ptr %7, align 8, !tbaa !3
  %15 = load ptr, ptr %8, align 8, !tbaa !3
  call void @_ZN5boost7archive17archive_exceptionC2ENS1_14exception_codeEPKcS4_(ptr noundef nonnull align 8 dereferenceable(140) %13, ptr noundef getelementptr inbounds ([5 x ptr], ptr @_ZTTN5boost7archive21xml_archive_exceptionE, i64 0, i64 3), i32 noundef 1, ptr noundef %14, ptr noundef %15) #7
  store ptr getelementptr inbounds inrange(-48, 24) ({ [9 x ptr], [8 x ptr] }, ptr @_ZTVN5boost7archive21xml_archive_exceptionE, i32 0, i32 0, i32 6), ptr %12, align 8, !tbaa !9
  %16 = getelementptr inbounds i8, ptr %12, i64 8
  store ptr getelementptr inbounds inrange(-40, 24) ({ [9 x ptr], [8 x ptr] }, ptr @_ZTVN5boost7archive21xml_archive_exceptionE, i32 0, i32 1, i32 5), ptr %16, align 8, !tbaa !9
  store ptr getelementptr inbounds inrange(-48, 24) ({ [9 x ptr], [8 x ptr] }, ptr @_ZTVN5boost7archive21xml_archive_exceptionE, i32 0, i32 0, i32 6), ptr %12, align 8, !tbaa !9
  %17 = load i32, ptr %6, align 4, !tbaa !7
  switch i32 %17, label %66 [
    i32 0, label %18
    i32 1, label %29
    i32 2, label %59
  ]

18:                                               ; preds = %4
  %19 = load ptr, ptr %12, align 8, !tbaa !9
  %20 = getelementptr i8, ptr %19, i64 -40
  %21 = load i64, ptr %20, align 8
  %22 = getelementptr inbounds i8, ptr %12, i64 %21
  %23 = invoke noundef i32 @_ZN5boost7archive17archive_exception6appendEjPKc(ptr noundef nonnull align 8 dereferenceable(140) %22, i32 noundef 0, ptr noundef @.str)
          to label %24 unwind label %25

24:                                               ; preds = %18
  br label %73

25:                                               ; preds = %66, %59, %18
  %26 = landingpad { ptr, i32 }
          cleanup
  %27 = extractvalue { ptr, i32 } %26, 0
  store ptr %27, ptr %9, align 8
  %28 = extractvalue { ptr, i32 } %26, 1
  store i32 %28, ptr %10, align 4
  br label %74

29:                                               ; preds = %4
  call void @llvm.lifetime.start.p0(i64 4, ptr %11) #7
  %30 = load ptr, ptr %12, align 8, !tbaa !9
  %31 = getelementptr i8, ptr %30, i64 -40
  %32 = load i64, ptr %31, align 8
  %33 = getelementptr inbounds i8, ptr %12, i64 %32
  %34 = invoke noundef i32 @_ZN5boost7archive17archive_exception6appendEjPKc(ptr noundef nonnull align 8 dereferenceable(140) %33, i32 noundef 0, ptr noundef @.str.1)
          to label %35 unwind label %54

35:                                               ; preds = %29
  store i32 %34, ptr %11, align 4, !tbaa !11
  %36 = load ptr, ptr %7, align 8, !tbaa !3
  %37 = icmp ne ptr null, %36
  br i1 %37, label %38, label %58

38:                                               ; preds = %35
  %39 = load ptr, ptr %12, align 8, !tbaa !9
  %40 = getelementptr i8, ptr %39, i64 -40
  %41 = load i64, ptr %40, align 8
  %42 = getelementptr inbounds i8, ptr %12, i64 %41
  %43 = load i32, ptr %11, align 4, !tbaa !11
  %44 = invoke noundef i32 @_ZN5boost7archive17archive_exception6appendEjPKc(ptr noundef nonnull align 8 dereferenceable(140) %42, i32 noundef %43, ptr noundef @.str.2)
          to label %45 unwind label %54

45:                                               ; preds = %38
  store i32 %44, ptr %11, align 4, !tbaa !11
  %46 = load ptr, ptr %12, align 8, !tbaa !9
  %47 = getelementptr i8, ptr %46, i64 -40
  %48 = load i64, ptr %47, align 8
  %49 = getelementptr inbounds i8, ptr %12, i64 %48
  %50 = load i32, ptr %11, align 4, !tbaa !11
  %51 = load ptr, ptr %7, align 8, !tbaa !3
  %52 = invoke noundef i32 @_ZN5boost7archive17archive_exception6appendEjPKc(ptr noundef nonnull align 8 dereferenceable(140) %49, i32 noundef %50, ptr noundef %51)
          to label %53 unwind label %54

53:                                               ; preds = %45
  br label %58

54:                                               ; preds = %45, %38, %29
  %55 = landingpad { ptr, i32 }
          cleanup
  %56 = extractvalue { ptr, i32 } %55, 0
  store ptr %56, ptr %9, align 8
  %57 = extractvalue { ptr, i32 } %55, 1
  store i32 %57, ptr %10, align 4
  call void @llvm.lifetime.end.p0(i64 4, ptr %11) #7
  br label %74

58:                                               ; preds = %53, %35
  call void @llvm.lifetime.end.p0(i64 4, ptr %11) #7
  br label %73

59:                                               ; preds = %4
  %60 = load ptr, ptr %12, align 8, !tbaa !9
  %61 = getelementptr i8, ptr %60, i64 -40
  %62 = load i64, ptr %61, align 8
  %63 = getelementptr inbounds i8, ptr %12, i64 %62
  %64 = invoke noundef i32 @_ZN5boost7archive17archive_exception6appendEjPKc(ptr noundef nonnull align 8 dereferenceable(140) %63, i32 noundef 0, ptr noundef @.str.3)
          to label %65 unwind label %25

65:                                               ; preds = %59
  br label %73

66:                                               ; preds = %4
  %67 = load ptr, ptr %12, align 8, !tbaa !9
  %68 = getelementptr i8, ptr %67, i64 -40
  %69 = load i64, ptr %68, align 8
  %70 = getelementptr inbounds i8, ptr %12, i64 %69
  %71 = invoke noundef i32 @_ZN5boost7archive17archive_exception6appendEjPKc(ptr noundef nonnull align 8 dereferenceable(140) %70, i32 noundef 0, ptr noundef @.str.4)
          to label %72 unwind label %25

72:                                               ; preds = %66
  br label %73

73:                                               ; preds = %72, %65, %58, %24
  ret void

74:                                               ; preds = %54, %25
  %75 = getelementptr inbounds i8, ptr %12, i64 8
  call void @_ZN5boost7archive17archive_exceptionD2Ev(ptr noundef nonnull align 8 dereferenceable(140) %75, ptr noundef getelementptr inbounds ([5 x ptr], ptr @_ZTTN5boost7archive21xml_archive_exceptionE, i64 0, i64 3)) #7
  call void @_ZNSt9exceptionD2Ev(ptr noundef nonnull align 8 dereferenceable(8) %12) #7
  br label %76

76:                                               ; preds = %74
  %77 = load ptr, ptr %9, align 8
  %78 = load i32, ptr %10, align 4
  %79 = insertvalue { ptr, i32 } poison, ptr %77, 0
  %80 = insertvalue { ptr, i32 } %79, i32 %78, 1
  resume { ptr, i32 } %80
}