; Function Attrs: mustprogress uwtable
define void @_ZN5boost7archive21xml_archive_exceptionC1ENS1_14exception_codeEPKcS4_(ptr noundef nonnull align 8 dereferenceable(8) %0, i32 noundef %1, ptr noundef %2, ptr noundef %3) unnamed_addr #0 align 2 personality ptr @__gxx_personality_v0 {
  store ptr getelementptr inbounds inrange(-16, 24) (i8, ptr @_ZTVSt9exception, i64 16), ptr %0, align 8, !tbaa !3
  %5 = getelementptr inbounds i8, ptr %0, i64 8
  tail call void @_ZN5boost7archive17archive_exceptionC2ENS1_14exception_codeEPKcS4_(ptr noundef nonnull align 8 dereferenceable(140) %5, ptr noundef nonnull getelementptr inbounds (i8, ptr @_ZTTN5boost7archive21xml_archive_exceptionE, i64 24), i32 noundef 1, ptr noundef %2, ptr noundef %3) #8
  store ptr getelementptr inbounds inrange(-40, 24) (i8, ptr @_ZTVN5boost7archive21xml_archive_exceptionE, i64 112), ptr %5, align 8, !tbaa !3
  store ptr getelementptr inbounds inrange(-48, 24) (i8, ptr @_ZTVN5boost7archive21xml_archive_exceptionE, i64 48), ptr %0, align 8, !tbaa !3
  switch i32 %1, label %26 [
    i32 0, label %6
    i32 1, label %9
    i32 2, label %.invoke
  ]

6:                                                ; preds = %4
  br label %.invoke

7:                                                ; preds = %.invoke
  %8 = landingpad { ptr, i32 }
          cleanup
  br label %30

9:                                                ; preds = %4
  %10 = invoke noundef i32 @_ZN5boost7archive17archive_exception6appendEjPKc(ptr noundef nonnull align 8 dereferenceable(140) %5, i32 noundef 0, ptr noundef nonnull @.str.1)
          to label %11 unwind label %24

11:                                               ; preds = %9
  %.not = icmp eq ptr %2, null
  br i1 %.not, label %29, label %12

12:                                               ; preds = %11
  %13 = load ptr, ptr %0, align 8, !tbaa !3
  %14 = getelementptr i8, ptr %13, i64 -40
  %15 = load i64, ptr %14, align 8
  %16 = getelementptr inbounds i8, ptr %0, i64 %15
  %17 = invoke noundef i32 @_ZN5boost7archive17archive_exception6appendEjPKc(ptr noundef nonnull align 8 dereferenceable(140) %16, i32 noundef %10, ptr noundef nonnull @.str.2)
          to label %18 unwind label %24

18:                                               ; preds = %12
  %19 = load ptr, ptr %0, align 8, !tbaa !3
  %20 = getelementptr i8, ptr %19, i64 -40
  %21 = load i64, ptr %20, align 8
  %22 = getelementptr inbounds i8, ptr %0, i64 %21
  %23 = invoke noundef i32 @_ZN5boost7archive17archive_exception6appendEjPKc(ptr noundef nonnull align 8 dereferenceable(140) %22, i32 noundef %17, ptr noundef nonnull %2)
          to label %29 unwind label %24

24:                                               ; preds = %18, %12, %9
  %25 = landingpad { ptr, i32 }
          cleanup
  br label %30

26:                                               ; preds = %4
  br label %.invoke

.invoke:                                          ; preds = %4, %6, %26
  %27 = phi ptr [ @.str.4, %26 ], [ @.str, %6 ], [ @.str.3, %4 ]
  %28 = invoke noundef i32 @_ZN5boost7archive17archive_exception6appendEjPKc(ptr noundef nonnull align 8 dereferenceable(140) %5, i32 noundef 0, ptr noundef nonnull %27)
          to label %29 unwind label %7

29:                                               ; preds = %.invoke, %11, %18
  ret void

30:                                               ; preds = %24, %7
  %.pn = phi { ptr, i32 } [ %8, %7 ], [ %25, %24 ]
  tail call void @_ZN5boost7archive17archive_exceptionD2Ev(ptr noundef nonnull align 8 dereferenceable(140) %5, ptr noundef nonnull getelementptr inbounds (i8, ptr @_ZTTN5boost7archive21xml_archive_exceptionE, i64 24)) #8
  tail call void @_ZNSt9exceptionD2Ev(ptr noundef nonnull align 8 dereferenceable(8) %0) #8
  resume { ptr, i32 } %.pn
}